target datalayout = "e-m:e-p270:32:32-p271:32:32-p272:64:64-i64:64-i128:128-f80:128-n8:16:32:64-S128"
target triple = "x86_64-pc-linux-gnu"

%struct.snode = type { i32, i32, ptr, ptr, i16, i16, [2 x ptr], ptr, i32, i8 }

@pq = internal global ptr null, align 8
@PQcnt = internal global i32 0, align 4

; Function Attrs: nounwind uwtable
define void @PQcheck() #0 {
  %1 = alloca i32, align 4
  call void @llvm.lifetime.start.p0(i64 4, ptr %1) #8
  store i32 1, ptr %1, align 4, !tbaa !3
  br label %2

2:                                                ; preds = %18, %0
  %3 = load i32, ptr %1, align 4, !tbaa !3
  %4 = load i32, ptr @PQcnt, align 4, !tbaa !3
  %5 = icmp sle i32 %3, %4
  br i1 %5, label %6, label %21

6:                                                ; preds = %2
  %7 = load ptr, ptr @pq, align 8, !tbaa !7
  %8 = load i32, ptr %1, align 4, !tbaa !3
  %9 = sext i32 %8 to i64
  %10 = getelementptr inbounds ptr, ptr %7, i64 %9
  %11 = load ptr, ptr %10, align 8, !tbaa !10
  %12 = getelementptr inbounds nuw %struct.snode, ptr %11, i32 0, i32 1
  %13 = load i32, ptr %12, align 4, !tbaa !17
  %14 = load i32, ptr %1, align 4, !tbaa !3
  %15 = icmp ne i32 %13, %14
  br i1 %15, label %16, label %17

16:                                               ; preds = %6
  br label %17

17:                                               ; preds = %16, %6
  br label %18

18:                                               ; preds = %17
  %19 = load i32, ptr %1, align 4, !tbaa !3
  %20 = add nsw i32 %19, 1
  store i32 %20, ptr %1, align 4, !tbaa !3
  br label %2, !llvm.loop !23

21:                                               ; preds = %2
  call void @llvm.lifetime.end.p0(i64 4, ptr %1) #8
  ret void
}

; Function Attrs: nounwind uwtable
define void @PQupheap(i32 noundef %0) #0 {
  %2 = alloca i32, align 4
  %3 = alloca ptr, align 8
  %4 = alloca i32, align 4
  %5 = alloca i32, align 4
  %6 = alloca ptr, align 8
  store i32 %0, ptr %2, align 4, !tbaa !3
  call void @llvm.lifetime.start.p0(i64 8, ptr %3) #8
  %7 = load ptr, ptr @pq, align 8, !tbaa !7
  %8 = load i32, ptr %2, align 4, !tbaa !3
  %9 = sext i32 %8 to i64
  %10 = getelementptr inbounds ptr, ptr %7, i64 %9
  %11 = load ptr, ptr %10, align 8, !tbaa !10
  store ptr %11, ptr %3, align 8, !tbaa !10
  call void @llvm.lifetime.start.p0(i64 4, ptr %4) #8
  %12 = load ptr, ptr %3, align 8, !tbaa !10
  %13 = getelementptr inbounds nuw %struct.snode, ptr %12, i32 0, i32 0
  %14 = load i32, ptr %13, align 8, !tbaa !25
  store i32 %14, ptr %4, align 4, !tbaa !3
  call void @llvm.lifetime.start.p0(i64 4, ptr %5) #8
  %15 = load i32, ptr %2, align 4, !tbaa !3
  %16 = sdiv i32 %15, 2
  store i32 %16, ptr %5, align 4, !tbaa !3
  call void @llvm.lifetime.start.p0(i64 8, ptr %6) #8
  br label %17

17:                                               ; preds = %27, %1
  %18 = load ptr, ptr @pq, align 8, !tbaa !7
  %19 = load i32, ptr %5, align 4, !tbaa !3
  %20 = sext i32 %19 to i64
  %21 = getelementptr inbounds ptr, ptr %18, i64 %20
  %22 = load ptr, ptr %21, align 8, !tbaa !10
  store ptr %22, ptr %6, align 8, !tbaa !10
  %23 = getelementptr inbounds nuw %struct.snode, ptr %22, i32 0, i32 0
  %24 = load i32, ptr %23, align 8, !tbaa !25
  %25 = load i32, ptr %4, align 4, !tbaa !3
  %26 = icmp slt i32 %24, %25
  br i1 %26, label %27, label %39

27:                                               ; preds = %17
  %28 = load ptr, ptr %6, align 8, !tbaa !10
  %29 = load ptr, ptr @pq, align 8, !tbaa !7
  %30 = load i32, ptr %2, align 4, !tbaa !3
  %31 = sext i32 %30 to i64
  %32 = getelementptr inbounds ptr, ptr %29, i64 %31
  store ptr %28, ptr %32, align 8, !tbaa !10
  %33 = load i32, ptr %2, align 4, !tbaa !3
  %34 = load ptr, ptr %6, align 8, !tbaa !10
  %35 = getelementptr inbounds nuw %struct.snode, ptr %34, i32 0, i32 1
  store i32 %33, ptr %35, align 4, !tbaa !17
  %36 = load i32, ptr %5, align 4, !tbaa !3
  store i32 %36, ptr %2, align 4, !tbaa !3
  %37 = load i32, ptr %5, align 4, !tbaa !3
  %38 = sdiv i32 %37, 2
  store i32 %38, ptr %5, align 4, !tbaa !3
  br label %17, !llvm.loop !26

39:                                               ; preds = %17
  %40 = load ptr, ptr %3, align 8, !tbaa !10
  %41 = load ptr, ptr @pq, align 8, !tbaa !7
  %42 = load i32, ptr %2, align 4, !tbaa !3
  %43 = sext i32 %42 to i64
  %44 = getelementptr inbounds ptr, ptr %41, i64 %43
  store ptr %40, ptr %44, align 8, !tbaa !10
  %45 = load i32, ptr %2, align 4, !tbaa !3
  %46 = load ptr, ptr %3, align 8, !tbaa !10
  %47 = getelementptr inbounds nuw %struct.snode, ptr %46, i32 0, i32 1
  store i32 %45, ptr %47, align 4, !tbaa !17
  call void @llvm.lifetime.end.p0(i64 8, ptr %6) #8
  call void @llvm.lifetime.end.p0(i64 4, ptr %5) #8
  call void @llvm.lifetime.end.p0(i64 4, ptr %4) #8
  call void @llvm.lifetime.end.p0(i64 8, ptr %3) #8
  ret void
}

; Function Attrs: nounwind uwtable
define void @PQupdate(ptr noundef %0, i32 noundef %1) #0 {
  %3 = alloca ptr, align 8
  %4 = alloca i32, align 4
  store ptr %0, ptr %3, align 8, !tbaa !10
  store i32 %1, ptr %4, align 4, !tbaa !3
  %5 = load i32, ptr %4, align 4, !tbaa !3
  %6 = load ptr, ptr %3, align 8, !tbaa !10
  %7 = getelementptr inbounds nuw %struct.snode, ptr %6, i32 0, i32 0
  store i32 %5, ptr %7, align 8, !tbaa !25
  %8 = load ptr, ptr %3, align 8, !tbaa !10
  %9 = getelementptr inbounds nuw %struct.snode, ptr %8, i32 0, i32 1
  %10 = load i32, ptr %9, align 4, !tbaa !17
  call void @PQupheap(i32 noundef %10)
  call void @PQcheck()
  ret void
}