; Function Attrs: nofree norecurse nosync nounwind memory(readwrite, inaccessiblemem: none) uwtable
define void @PQupdate(ptr noundef captures(none) initializes((0, 4)) %0, i32 noundef %1) local_unnamed_addr #5 {
  store i32 %1, ptr %0, align 8, !tbaa !14
  %3 = getelementptr inbounds nuw i8, ptr %0, i64 4
  %4 = load i32, ptr %3, align 4, !tbaa !20
  %5 = load ptr, ptr @pq, align 8, !tbaa !3
  %6 = sext i32 %4 to i64
  %7 = getelementptr inbounds ptr, ptr %5, i64 %6
  %8 = load ptr, ptr %7, align 8, !tbaa !10
  %9 = load i32, ptr %8, align 8, !tbaa !14
  %.01415.i = sdiv i32 %4, 2
  %10 = sext i32 %.01415.i to i64
  %11 = getelementptr inbounds ptr, ptr %5, i64 %10
  %12 = load ptr, ptr %11, align 8, !tbaa !10
  %13 = load i32, ptr %12, align 8, !tbaa !14
  %14 = icmp slt i32 %13, %9
  br i1 %14, label %.lr.ph.i, label %PQupheap.exit

.lr.ph.i:                                         ; preds = %2, %.lr.ph.i
  %15 = phi ptr [ %21, %.lr.ph.i ], [ %12, %2 ]
  %.01417.i = phi i32 [ %.014.i, %.lr.ph.i ], [ %.01415.i, %2 ]
  %.016.i = phi i32 [ %.01417.i, %.lr.ph.i ], [ %4, %2 ]
  %16 = sext i32 %.016.i to i64
  %17 = getelementptr inbounds ptr, ptr %5, i64 %16
  store ptr %15, ptr %17, align 8, !tbaa !10
  %18 = getelementptr inbounds nuw i8, ptr %15, i64 4
  store i32 %.016.i, ptr %18, align 4, !tbaa !20
  %.014.i = sdiv i32 %.01417.i, 2
  %19 = sext i32 %.014.i to i64
  %20 = getelementptr inbounds ptr, ptr %5, i64 %19
  %21 = load ptr, ptr %20, align 8, !tbaa !10
  %22 = load i32, ptr %21, align 8, !tbaa !14
  %23 = icmp slt i32 %22, %9
  br i1 %23, label %.lr.ph.i, label %._crit_edge.loopexit.i, !llvm.loop !21

._crit_edge.loopexit.i:                           ; preds = %.lr.ph.i
  %.pre.i = sext i32 %.01417.i to i64
  br label %PQupheap.exit

PQupheap.exit:                                    ; preds = %2, %._crit_edge.loopexit.i
  %.pre-phi.i = phi i64 [ %.pre.i, %._crit_edge.loopexit.i ], [ %6, %2 ]
  %.0.lcssa.i = phi i32 [ %.01417.i, %._crit_edge.loopexit.i ], [ %4, %2 ]
  %24 = getelementptr inbounds ptr, ptr %5, i64 %.pre-phi.i
  store ptr %8, ptr %24, align 8, !tbaa !10
  %25 = getelementptr inbounds nuw i8, ptr %8, i64 4
  store i32 %.0.lcssa.i, ptr %25, align 4, !tbaa !20
  ret void
}